target datalayout = "e-m:e-p270:32:32-p271:32:32-p272:64:64-i64:64-i128:128-f80:128-n8:16:32:64-S128"
target triple = "x86_64-pc-linux-gnu"

%struct.FT_Vector_ = type { i64, i64 }
%struct.FT_FaceRec_ = type { i64, i64, i64, i64, i64, ptr, ptr, i32, ptr, i32, ptr, %struct.FT_Generic_, %struct.FT_BBox_, i16, i16, i16, i16, i16, i16, i16, i16, ptr, ptr, ptr, ptr, ptr, ptr, %struct.FT_ListRec_, %struct.FT_Generic_, ptr, ptr }
%struct.FT_BBox_ = type { i64, i64, i64, i64 }
%struct.FT_ListRec_ = type { ptr, ptr }
%struct.FT_Generic_ = type { ptr, ptr }
%struct.FT_ModuleRec_ = type { ptr, ptr, ptr }
%struct.FT_Module_Class_ = type { i64, i64, ptr, i64, i64, ptr, ptr, ptr, ptr }
%struct.FT_Face_InternalRec_ = type { %struct.FT_Matrix_, %struct.FT_Vector_, i32, %struct.FT_ServiceCacheRec_, ptr, i8, i32, i32 }
%struct.FT_Matrix_ = type { i64, i64, i64, i64 }
%struct.FT_ServiceCacheRec_ = type { ptr, ptr, ptr, ptr, ptr, ptr }
%struct.FT_Service_GlyphDictRec_ = type { ptr, ptr }

@.str.4 = private unnamed_addr constant [11 x i8] c"glyph-dict\00", align 1

; Function Attrs: nounwind uwtable
define i32 @FT_Get_Name_Index(ptr noundef %0, ptr noundef %1) #0 {
  %3 = alloca ptr, align 8
  %4 = alloca ptr, align 8
  %5 = alloca i32, align 4
  %6 = alloca ptr, align 8
  %7 = alloca ptr, align 8
  %8 = alloca ptr, align 8
  %9 = alloca ptr, align 8
  store ptr %0, ptr %3, align 8, !tbaa !3
  store ptr %1, ptr %4, align 8, !tbaa !183
  call void @llvm.lifetime.start.p0(i64 4, ptr %5) #10
  store i32 0, ptr %5, align 4, !tbaa !8
  %10 = load ptr, ptr %3, align 8, !tbaa !3
  %11 = icmp ne ptr %10, null
  br i1 %11, label %12, label %90

12:                                               ; preds = %2
  %13 = load ptr, ptr %3, align 8, !tbaa !3
  %14 = getelementptr inbounds nuw %struct.FT_FaceRec_, ptr %13, i32 0, i32 2
  %15 = load i64, ptr %14, align 8, !tbaa !78
  %16 = and i64 %15, 512
  %17 = icmp ne i64 %16, 0
  br i1 %17, label %18, label %90

18:                                               ; preds = %12
  %19 = load ptr, ptr %4, align 8, !tbaa !183
  %20 = icmp ne ptr %19, null
  br i1 %20, label %21, label %90

21:                                               ; preds = %18
  call void @llvm.lifetime.start.p0(i64 8, ptr %6) #10
  br label %22

22:                                               ; preds = %21
  call void @llvm.lifetime.start.p0(i64 8, ptr %7) #10
  %23 = load ptr, ptr %3, align 8, !tbaa !3
  %24 = getelementptr inbounds nuw %struct.FT_FaceRec_, ptr %23, i32 0, i32 30
  %25 = load ptr, ptr %24, align 8, !tbaa !79
  %26 = getelementptr inbounds nuw %struct.FT_Face_InternalRec_, ptr %25, i32 0, i32 3
  %27 = getelementptr inbounds nuw %struct.FT_ServiceCacheRec_, ptr %26, i32 0, i32 3
  %28 = load ptr, ptr %27, align 8, !tbaa !487
  store ptr %28, ptr %7, align 8, !tbaa !41
  %29 = load ptr, ptr %7, align 8, !tbaa !41
  %30 = icmp eq ptr %29, inttoptr (i64 -2 to ptr)
  br i1 %30, label %31, label %32

31:                                               ; preds = %22
  store ptr null, ptr %7, align 8, !tbaa !41
  br label %71

32:                                               ; preds = %22
  %33 = load ptr, ptr %7, align 8, !tbaa !41
  %34 = icmp eq ptr %33, null
  br i1 %34, label %35, label %70

35:                                               ; preds = %32
  br label %36

36:                                               ; preds = %35
  call void @llvm.lifetime.start.p0(i64 8, ptr %8) #10
  %37 = load ptr, ptr %3, align 8, !tbaa !3
  %38 = getelementptr inbounds nuw %struct.FT_FaceRec_, ptr %37, i32 0, i32 24
  %39 = load ptr, ptr %38, align 8, !tbaa !30
  store ptr %39, ptr %8, align 8, !tbaa !75
  call void @llvm.lifetime.start.p0(i64 8, ptr %9) #10
  store ptr null, ptr %9, align 8, !tbaa !41
  %40 = load ptr, ptr %8, align 8, !tbaa !75
  %41 = getelementptr inbounds nuw %struct.FT_ModuleRec_, ptr %40, i32 0, i32 0
  %42 = load ptr, ptr %41, align 8, !tbaa !86
  %43 = getelementptr inbounds nuw %struct.FT_Module_Class_, ptr %42, i32 0, i32 8
  %44 = load ptr, ptr %43, align 8, !tbaa !184
  %45 = icmp ne ptr %44, null
  br i1 %45, label %46, label %54

46:                                               ; preds = %36
  %47 = load ptr, ptr %8, align 8, !tbaa !75
  %48 = getelementptr inbounds nuw %struct.FT_ModuleRec_, ptr %47, i32 0, i32 0
  %49 = load ptr, ptr %48, align 8, !tbaa !86
  %50 = getelementptr inbounds nuw %struct.FT_Module_Class_, ptr %49, i32 0, i32 8
  %51 = load ptr, ptr %50, align 8, !tbaa !184
  %52 = load ptr, ptr %8, align 8, !tbaa !75
  %53 = call ptr %51(ptr noundef %52, ptr noundef @.str.4)
  store ptr %53, ptr %9, align 8, !tbaa !41
  br label %54

54:                                               ; preds = %46, %36
  %55 = load ptr, ptr %9, align 8, !tbaa !41
  store ptr %55, ptr %7, align 8, !tbaa !41
  call void @llvm.lifetime.end.p0(i64 8, ptr %9) #10
  call void @llvm.lifetime.end.p0(i64 8, ptr %8) #10
  br label %56

56:                                               ; preds = %54
  br label %57

57:                                               ; preds = %56
  %58 = load ptr, ptr %7, align 8, !tbaa !41
  %59 = icmp ne ptr %58, null
  br i1 %59, label %60, label %62

60:                                               ; preds = %57
  %61 = load ptr, ptr %7, align 8, !tbaa !41
  br label %63

62:                                               ; preds = %57
  br label %63

63:                                               ; preds = %62, %60
  %64 = phi ptr [ %61, %60 ], [ inttoptr (i64 -2 to ptr), %62 ]
  %65 = load ptr, ptr %3, align 8, !tbaa !3
  %66 = getelementptr inbounds nuw %struct.FT_FaceRec_, ptr %65, i32 0, i32 30
  %67 = load ptr, ptr %66, align 8, !tbaa !79
  %68 = getelementptr inbounds nuw %struct.FT_Face_InternalRec_, ptr %67, i32 0, i32 3
  %69 = getelementptr inbounds nuw %struct.FT_ServiceCacheRec_, ptr %68, i32 0, i32 3
  store ptr %64, ptr %69, align 8, !tbaa !487
  br label %70

70:                                               ; preds = %63, %32
  br label %71

71:                                               ; preds = %70, %31
  %72 = load ptr, ptr %7, align 8, !tbaa !41
  store ptr %72, ptr %6, align 8, !tbaa !488
  call void @llvm.lifetime.end.p0(i64 8, ptr %7) #10
  br label %73

73:                                               ; preds = %71
  br label %74

74:                                               ; preds = %73
  %75 = load ptr, ptr %6, align 8, !tbaa !488
  %76 = icmp ne ptr %75, null
  br i1 %76, label %77, label %89

77:                                               ; preds = %74
  %78 = load ptr, ptr %6, align 8, !tbaa !488
  %79 = getelementptr inbounds nuw %struct.FT_Service_GlyphDictRec_, ptr %78, i32 0, i32 1
  %80 = load ptr, ptr %79, align 8, !tbaa !490
  %81 = icmp ne ptr %80, null
  br i1 %81, label %82, label %89

82:                                               ; preds = %77
  %83 = load ptr, ptr %6, align 8, !tbaa !488
  %84 = getelementptr inbounds nuw %struct.FT_Service_GlyphDictRec_, ptr %83, i32 0, i32 1
  %85 = load ptr, ptr %84, align 8, !tbaa !490
  %86 = load ptr, ptr %3, align 8, !tbaa !3
  %87 = load ptr, ptr %4, align 8, !tbaa !183
  %88 = call i32 %85(ptr noundef %86, ptr noundef %87)
  store i32 %88, ptr %5, align 4, !tbaa !8
  br label %89

89:                                               ; preds = %82, %77, %74
  call void @llvm.lifetime.end.p0(i64 8, ptr %6) #10
  br label %90

90:                                               ; preds = %89, %18, %12, %2
  %91 = load i32, ptr %5, align 4, !tbaa !8
  call void @llvm.lifetime.end.p0(i64 4, ptr %5) #10
  ret i32 %91
}