; Function Attrs: nounwind uwtable
define i32 @FT_Get_Name_Index(ptr noundef %0, ptr noundef %1) local_unnamed_addr #0 {
  %.not = icmp eq ptr %0, null
  br i1 %.not, label %.thread, label %3

3:                                                ; preds = %2
  %4 = getelementptr inbounds nuw i8, ptr %0, i64 16
  %5 = load i64, ptr %4, align 8, !tbaa !68
  %6 = and i64 %5, 512
  %7 = icmp ne i64 %6, 0
  %8 = icmp ne ptr %1, null
  %or.cond = and i1 %8, %7
  br i1 %or.cond, label %9, label %.thread

9:                                                ; preds = %3
  %10 = getelementptr inbounds nuw i8, ptr %0, i64 240
  %11 = load ptr, ptr %10, align 8, !tbaa !82
  %12 = getelementptr inbounds nuw i8, ptr %11, i64 80
  %13 = load ptr, ptr %12, align 8, !tbaa !412
  %magicptr = ptrtoint ptr %13 to i64
  switch i64 %magicptr, label %.fold.split [
    i64 -2, label %.thread
    i64 0, label %14
  ]

14:                                               ; preds = %9
  %15 = getelementptr inbounds nuw i8, ptr %0, i64 176
  %16 = load ptr, ptr %15, align 8, !tbaa !25
  %17 = load ptr, ptr %16, align 8, !tbaa !88
  %18 = getelementptr inbounds nuw i8, ptr %17, i64 64
  %19 = load ptr, ptr %18, align 8, !tbaa !90
  %.not28 = icmp eq ptr %19, null
  br i1 %.not28, label %22, label %20

20:                                               ; preds = %14
  %21 = tail call ptr %19(ptr noundef nonnull %16, ptr noundef nonnull @.str.4) #34
  %.pre = load ptr, ptr %10, align 8, !tbaa !82
  br label %22

22:                                               ; preds = %20, %14
  %23 = phi ptr [ %.pre, %20 ], [ %11, %14 ]
  %.0 = phi ptr [ %21, %20 ], [ null, %14 ]
  %.not29 = icmp eq ptr %.0, null
  %24 = select i1 %.not29, ptr inttoptr (i64 -2 to ptr), ptr %.0
  %25 = getelementptr inbounds nuw i8, ptr %23, i64 80
  store ptr %24, ptr %25, align 8, !tbaa !412
  br label %.fold.split

.fold.split:                                      ; preds = %9, %22
  %.022 = phi ptr [ %.0, %22 ], [ %13, %9 ]
  %.not30 = icmp eq ptr %.022, null
  br i1 %.not30, label %.thread, label %26

26:                                               ; preds = %.fold.split
  %27 = getelementptr inbounds nuw i8, ptr %.022, i64 8
  %28 = load ptr, ptr %27, align 8, !tbaa !413
  %.not31 = icmp eq ptr %28, null
  br i1 %.not31, label %.thread, label %29

29:                                               ; preds = %26
  %30 = tail call i32 %28(ptr noundef nonnull %0, ptr noundef nonnull %1) #34
  br label %.thread

.thread:                                          ; preds = %9, %.fold.split, %26, %29, %3, %2
  %.021 = phi i32 [ 0, %3 ], [ 0, %2 ], [ %30, %29 ], [ 0, %26 ], [ 0, %.fold.split ], [ 0, %9 ]
  ret i32 %.021
}